; Function Attrs: mustprogress nofree norecurse nosync nounwind willreturn memory(read, inaccessiblemem: none) uwtable
define noundef float @_ZN5ImGui13CalcItemWidthEv() local_unnamed_addr #43 {
  %1 = load ptr, ptr @GImGui, align 8, !tbaa !216
  %2 = getelementptr inbounds nuw i8, ptr %1, i64 7472
  %3 = load i32, ptr %2, align 8, !tbaa !298
  %4 = and i32 %3, 1
  %.not = icmp eq i32 %4, 0
  br i1 %.not, label %7, label %5

5:                                                ; preds = %0
  %6 = getelementptr inbounds nuw i8, ptr %1, i64 7496
  br label %11

7:                                                ; preds = %0
  %8 = getelementptr inbounds nuw i8, ptr %1, i64 5016
  %9 = load ptr, ptr %8, align 8, !tbaa !314
  %10 = getelementptr inbounds nuw i8, ptr %9, i64 480
  br label %11

11:                                               ; preds = %7, %5
  %.0.in = phi ptr [ %6, %5 ], [ %10, %7 ]
  %.0 = load float, ptr %.0.in, align 8, !tbaa !87
  %12 = fcmp olt float %.0, 0.000000e+00
  br i1 %12, label %13, label %28

13:                                               ; preds = %11
  %14 = getelementptr inbounds nuw i8, ptr %1, i64 5016
  %15 = load ptr, ptr %14, align 8, !tbaa !314
  %16 = getelementptr inbounds nuw i8, ptr %15, i64 448
  %17 = load ptr, ptr %16, align 8, !tbaa !346
  %.not.i = icmp eq ptr %17, null
  br i1 %.not.i, label %18, label %_ZN5ImGui21GetContentRegionAvailEv.exit

18:                                               ; preds = %13
  %19 = getelementptr inbounds nuw i8, ptr %1, i64 8640
  %20 = load ptr, ptr %19, align 8, !tbaa !351
  %.not6.i = icmp eq ptr %20, null
  %spec.select.i = select i1 %.not6.i, i64 624, i64 576
  br label %_ZN5ImGui21GetContentRegionAvailEv.exit

_ZN5ImGui21GetContentRegionAvailEv.exit:          ; preds = %13, %18
  %.sink.i = phi i64 [ 576, %13 ], [ %spec.select.i, %18 ]
  %21 = getelementptr inbounds nuw i8, ptr %15, i64 %.sink.i
  %22 = getelementptr inbounds nuw i8, ptr %15, i64 280
  %23 = load float, ptr %21, align 8
  %.val8.i = load float, ptr %22, align 4, !tbaa !50
  %24 = fsub float %23, %.val8.i
  %25 = fadd float %.0, %24
  %26 = fcmp ole float %25, 1.000000e+00
  %27 = select i1 %26, float 1.000000e+00, float %25
  br label %28

28:                                               ; preds = %_ZN5ImGui21GetContentRegionAvailEv.exit, %11
  %.1 = phi float [ %27, %_ZN5ImGui21GetContentRegionAvailEv.exit ], [ %.0, %11 ]
  %29 = fptosi float %.1 to i32
  %30 = sitofp i32 %29 to float
  ret float %30
}